(dp1
S'output'
p2
S"<class 'sqlite3.OperationalError'> no such table: web2py_session_lifeTracker"
p3
sS'layer'
p4
S'/Users/itsaireee/Desktop/aifukush/CMPS183/lifeTracker/web2py/applications/lifeTracker/models/db.py'
p5
sS'code'
p6
S'<code object <module> at 0x11053e3b0, file "/Users/itsaireee/Desktop/aifukush/CMPS183/lifeTracker/web2py/applications/lifeTracker/models/db.py", line 6>'
p7
sS'snapshot'
p8
(dp9
S'exception'
p10
(dp11
S'__module__'
p12
S"'sqlite3'"
p13
sS'__getslice__'
p14
S"<method-wrapper '__getslice__' of OperationalError object>"
p15
sS'__str__'
p16
S"<method-wrapper '__str__' of OperationalError object>"
p17
sS'__reduce__'
p18
S'<built-in method __reduce__ of OperationalError object>'
p19
sS'__dict__'
p20
S'{}'
p21
sS'__sizeof__'
p22
S'<built-in method __sizeof__ of OperationalError object>'
p23
sS'__weakref__'
p24
S'None'
p25
sS'message'
p26
S"'no such table: web2py_session_lifeTracker'"
p27
sS'__init__'
p28
S"<method-wrapper '__init__' of OperationalError object>"
p29
sS'__setattr__'
p30
S"<method-wrapper '__setattr__' of OperationalError object>"
p31
sS'__reduce_ex__'
p32
S'<built-in method __reduce_ex__ of OperationalError object>'
p33
sS'__new__'
p34
S'<built-in method __new__ of type object>'
p35
sS'__format__'
p36
S'<built-in method __format__ of OperationalError object>'
p37
sS'__class__'
p38
S"<class 'sqlite3.OperationalError'>"
p39
sS'__doc__'
p40
S'None'
p41
sS'__getitem__'
p42
S"<method-wrapper '__getitem__' of OperationalError object>"
p43
sS'__setstate__'
p44
S'<built-in method __setstate__ of OperationalError object>'
p45
sS'__getattribute__'
p46
S"<method-wrapper '__getattribute__' of OperationalError object>"
p47
sS'args'
p48
S"('no such table: web2py_session_lifeTracker',)"
p49
sS'__subclasshook__'
p50
S'<built-in method __subclasshook__ of type object>'
p51
sS'__unicode__'
p52
S'<built-in method __unicode__ of OperationalError object>'
p53
sS'__delattr__'
p54
S"<method-wrapper '__delattr__' of OperationalError object>"
p55
sS'__repr__'
p56
S"<method-wrapper '__repr__' of OperationalError object>"
p57
sS'__hash__'
p58
S"<method-wrapper '__hash__' of OperationalError object>"
p59
ssS'evalue'
p60
S'no such table: web2py_session_lifeTracker'
p61
sS'request'
p62
cgluon.html
XML_unpickle
p63
(S's \xce\x00\x00<div><table><tr><td style="font-weight:bold;vertical-align:top;">ajax</td><td style="vertical-align:top;">:</td><td><div>False</div></td></tr><tr><td style="font-weight:bold;vertical-align:top;">application</td><td style="vertical-align:top;">:</td><td><div>lifeTracker</div></td></tr><tr><td style="font-weight:bold;vertical-align:top;">args</td><td style="vertical-align:top;">:</td><td><div><table></table></div></td></tr><tr><td style="font-weight:bold;vertical-align:top;">cid</td><td style="vertical-align:top;">:</td><td><div>None</div></td></tr><tr><td style="font-weight:bold;vertical-align:top;">client</td><td style="vertical-align:top;">:</td><td><div>127.0.0.1</div></td></tr><tr><td style="font-weight:bold;vertical-align:top;">controller</td><td style="vertical-align:top;">:</td><td><div>default</div></td></tr><tr><td style="font-weight:bold;vertical-align:top;">cookies</td><td style="vertical-align:top;">:</td><td><div><table><tr><td style="font-weight:bold;vertical-align:top;">adminLanguage</td><td style="vertical-align:top;">:</td><td><div>en<table><tr><td style="font-weight:bold;vertical-align:top;">comment</td><td style="vertical-align:top;">:</td><td><div></div></td></tr><tr><td style="font-weight:bold;vertical-align:top;">domain</td><td style="vertical-align:top;">:</td><td><div></div></td></tr><tr><td style="font-weight:bold;vertical-align:top;">expires</td><td style="vertical-align:top;">:</td><td><div></div></td></tr><tr><td style="font-weight:bold;vertical-align:top;">httponly</td><td style="vertical-align:top;">:</td><td><div></div></td></tr><tr><td style="font-weight:bold;vertical-align:top;">max-age</td><td style="vertical-align:top;">:</td><td><div></div></td></tr><tr><td style="font-weight:bold;vertical-align:top;">path</td><td style="vertical-align:top;">:</td><td><div></div></td></tr><tr><td style="font-weight:bold;vertical-align:top;">samesite</td><td style="vertical-align:top;">:</td><td><div></div></td></tr><tr><td style="font-weight:bold;vertical-align:top;">secure</td><td style="vertical-align:top;">:</td><td><div></div></td></tr><tr><td style="font-weight:bold;vertical-align:top;">version</td><td style="vertical-align:top;">:</td><td><div></div></td></tr></table></div></td></tr><tr><td style="font-weight:bold;vertical-align:top;">session_id_admin</td><td style="vertical-align:top;">:</td><td><div>127.0.0.1-ce700a5f-e930-4508-8082-fd38e1af1e85<table><tr><td style="font-weight:bold;vertical-align:top;">comment</td><td style="vertical-align:top;">:</td><td><div></div></td></tr><tr><td style="font-weight:bold;vertical-align:top;">domain</td><td style="vertical-align:top;">:</td><td><div></div></td></tr><tr><td style="font-weight:bold;vertical-align:top;">expires</td><td style="vertical-align:top;">:</td><td><div></div></td></tr><tr><td style="font-weight:bold;vertical-align:top;">httponly</td><td style="vertical-align:top;">:</td><td><div></div></td></tr><tr><td style="font-weight:bold;vertical-align:top;">max-age</td><td style="vertical-align:top;">:</td><td><div></div></td></tr><tr><td style="font-weight:bold;vertical-align:top;">path</td><td style="vertical-align:top;">:</td><td><div></div></td></tr><tr><td style="font-weight:bold;vertical-align:top;">samesite</td><td style="vertical-align:top;">:</td><td><div></div></td></tr><tr><td style="font-weight:bold;vertical-align:top;">secure</td><td style="vertical-align:top;">:</td><td><div></div></td></tr><tr><td style="font-weight:bold;vertical-align:top;">version</td><td style="vertical-align:top;">:</td><td><div></div></td></tr></table></div></td></tr><tr><td style="font-weight:bold;vertical-align:top;">session_id_hw2</td><td style="vertical-align:top;">:</td><td><div>4:edd636a8-eebf-4499-ac1f-1d2231bebea4<table><tr><td style="font-weight:bold;vertical-align:top;">comment</td><td style="vertical-align:top;">:</td><td><div></div></td></tr><tr><td style="font-weight:bold;vertical-align:top;">domain</td><td style="vertical-align:top;">:</td><td><div></div></td></tr><tr><td style="font-weight:bold;vertical-align:top;">expires</td><td style="vertical-align:top;">:</td><td><div></div></td></tr><tr><td style="font-weight:bold;vertical-align:top;">httponly</td><td style="vertical-align:top;">:</td><td><div></div></td></tr><tr><td style="font-weight:bold;vertical-align:top;">max-age</td><td style="vertical-align:top;">:</td><td><div></div></td></tr><tr><td style="font-weight:bold;vertical-align:top;">path</td><td style="vertical-align:top;">:</td><td><div></div></td></tr><tr><td style="font-weight:bold;vertical-align:top;">samesite</td><td style="vertical-align:top;">:</td><td><div></div></td></tr><tr><td style="font-weight:bold;vertical-align:top;">secure</td><td style="vertical-align:top;">:</td><td><div></div></td></tr><tr><td style="font-weight:bold;vertical-align:top;">version</td><td style="vertical-align:top;">:</td><td><div></div></td></tr></table></div></td></tr><tr><td style="font-weight:bold;vertical-align:top;">session_id_hw3</td><td style="vertical-align:top;">:</td><td><div>7:3ff9edef-87af-4448-8c7e-0c613d3e8dd0<table><tr><td style="font-weight:bold;vertical-align:top;">comment</td><td style="vertical-align:top;">:</td><td><div></div></td></tr><tr><td style="font-weight:bold;vertical-align:top;">domain</td><td style="vertical-align:top;">:</td><td><div></div></td></tr><tr><td style="font-weight:bold;vertical-align:top;">expires</td><td style="vertical-align:top;">:</td><td><div></div></td></tr><tr><td style="font-weight:bold;vertical-align:top;">httponly</td><td style="vertical-align:top;">:</td><td><div></div></td></tr><tr><td style="font-weight:bold;vertical-align:top;">max-age</td><td style="vertical-align:top;">:</td><td><div></div></td></tr><tr><td style="font-weight:bold;vertical-align:top;">path</td><td style="vertical-align:top;">:</td><td><div></div></td></tr><tr><td style="font-weight:bold;vertical-align:top;">samesite</td><td style="vertical-align:top;">:</td><td><div></div></td></tr><tr><td style="font-weight:bold;vertical-align:top;">secure</td><td style="vertical-align:top;">:</td><td><div></div></td></tr><tr><td style="font-weight:bold;vertical-align:top;">version</td><td style="vertical-align:top;">:</td><td><div></div></td></tr></table></div></td></tr><tr><td style="font-weight:bold;vertical-align:top;">session_id_hw4</td><td style="vertical-align:top;">:</td><td><div>3:dfa5d7a4-7ad6-46ed-a3a1-7880c4946a13<table><tr><td style="font-weight:bold;vertical-align:top;">comment</td><td style="vertical-align:top;">:</td><td><div></div></td></tr><tr><td style="font-weight:bold;vertical-align:top;">domain</td><td style="vertical-align:top;">:</td><td><div></div></td></tr><tr><td style="font-weight:bold;vertical-align:top;">expires</td><td style="vertical-align:top;">:</td><td><div></div></td></tr><tr><td style="font-weight:bold;vertical-align:top;">httponly</td><td style="vertical-align:top;">:</td><td><div></div></td></tr><tr><td style="font-weight:bold;vertical-align:top;">max-age</td><td style="vertical-align:top;">:</td><td><div></div></td></tr><tr><td style="font-weight:bold;vertical-align:top;">path</td><td style="vertical-align:top;">:</td><td><div></div></td></tr><tr><td style="font-weight:bold;vertical-align:top;">samesite</td><td style="vertical-align:top;">:</td><td><div></div></td></tr><tr><td style="font-weight:bold;vertical-align:top;">secure</td><td style="vertical-align:top;">:</td><td><div></div></td></tr><tr><td style="font-weight:bold;vertical-align:top;">version</td><td style="vertical-align:top;">:</td><td><div></div></td></tr></table></div></td></tr><tr><td style="font-weight:bold;vertical-align:top;">session_id_lifetracker</td><td style="vertical-align:top;">:</td><td><div>2:e5a0db50-3fc5-4c0f-9c93-1ec80d075e87<table><tr><td style="font-weight:bold;vertical-align:top;">comment</td><td style="vertical-align:top;">:</td><td><div></div></td></tr><tr><td style="font-weight:bold;vertical-align:top;">domain</td><td style="vertical-align:top;">:</td><td><div></div></td></tr><tr><td style="font-weight:bold;vertical-align:top;">expires</td><td style="vertical-align:top;">:</td><td><div></div></td></tr><tr><td style="font-weight:bold;vertical-align:top;">httponly</td><td style="vertical-align:top;">:</td><td><div></div></td></tr><tr><td style="font-weight:bold;vertical-align:top;">max-age</td><td style="vertical-align:top;">:</td><td><div></div></td></tr><tr><td style="font-weight:bold;vertical-align:top;">path</td><td style="vertical-align:top;">:</td><td><div></div></td></tr><tr><td style="font-weight:bold;vertical-align:top;">samesite</td><td style="vertical-align:top;">:</td><td><div></div></td></tr><tr><td style="font-weight:bold;vertical-align:top;">secure</td><td style="vertical-align:top;">:</td><td><div></div></td></tr><tr><td style="font-weight:bold;vertical-align:top;">version</td><td style="vertical-align:top;">:</td><td><div></div></td></tr></table></div></td></tr><tr><td style="font-weight:bold;vertical-align:top;">session_id_master</td><td style="vertical-align:top;">:</td><td><div>1:a31acbd6-ac68-4176-accb-abceed131f47<table><tr><td style="font-weight:bold;vertical-align:top;">comment</td><td style="vertical-align:top;">:</td><td><div></div></td></tr><tr><td style="font-weight:bold;vertical-align:top;">domain</td><td style="vertical-align:top;">:</td><td><div></div></td></tr><tr><td style="font-weight:bold;vertical-align:top;">expires</td><td style="vertical-align:top;">:</td><td><div></div></td></tr><tr><td style="font-weight:bold;vertical-align:top;">httponly</td><td style="vertical-align:top;">:</td><td><div></div></td></tr><tr><td style="font-weight:bold;vertical-align:top;">max-age</td><td style="vertical-align:top;">:</td><td><div></div></td></tr><tr><td style="font-weight:bold;vertical-align:top;">path</td><td style="vertical-align:top;">:</td><td><div></div></td></tr><tr><td style="font-weight:bold;vertical-align:top;">samesite</td><td style="vertical-align:top;">:</td><td><div></div></td></tr><tr><td style="font-weight:bold;vertical-align:top;">secure</td><td style="vertical-align:top;">:</td><td><div></div></td></tr><tr><td style="font-weight:bold;vertical-align:top;">version</td><td style="vertical-align:top;">:</td><td><div></div></td></tr></table></div></td></tr><tr><td style="font-weight:bold;vertical-align:top;">session_id_review1</td><td style="vertical-align:top;">:</td><td><div>2:732e6c55-4ac5-4af8-813e-a7c768f1645b<table><tr><td style="font-weight:bold;vertical-align:top;">comment</td><td style="vertical-align:top;">:</td><td><div></div></td></tr><tr><td style="font-weight:bold;vertical-align:top;">domain</td><td style="vertical-align:top;">:</td><td><div></div></td></tr><tr><td style="font-weight:bold;vertical-align:top;">expires</td><td style="vertical-align:top;">:</td><td><div></div></td></tr><tr><td style="font-weight:bold;vertical-align:top;">httponly</td><td style="vertical-align:top;">:</td><td><div></div></td></tr><tr><td style="font-weight:bold;vertical-align:top;">max-age</td><td style="vertical-align:top;">:</td><td><div></div></td></tr><tr><td style="font-weight:bold;vertical-align:top;">path</td><td style="vertical-align:top;">:</td><td><div></div></td></tr><tr><td style="font-weight:bold;vertical-align:top;">samesite</td><td style="vertical-align:top;">:</td><td><div></div></td></tr><tr><td style="font-weight:bold;vertical-align:top;">secure</td><td style="vertical-align:top;">:</td><td><div></div></td></tr><tr><td style="font-weight:bold;vertical-align:top;">version</td><td style="vertical-align:top;">:</td><td><div></div></td></tr></table></div></td></tr><tr><td style="font-weight:bold;vertical-align:top;">session_id_review2_hw4</td><td style="vertical-align:top;">:</td><td><div>1:8a9f21e2-42d6-4fee-92df-21e0ee558939<table><tr><td style="font-weight:bold;vertical-align:top;">comment</td><td style="vertical-align:top;">:</td><td><div></div></td></tr><tr><td style="font-weight:bold;vertical-align:top;">domain</td><td style="vertical-align:top;">:</td><td><div></div></td></tr><tr><td style="font-weight:bold;vertical-align:top;">expires</td><td style="vertical-align:top;">:</td><td><div></div></td></tr><tr><td style="font-weight:bold;vertical-align:top;">httponly</td><td style="vertical-align:top;">:</td><td><div></div></td></tr><tr><td style="font-weight:bold;vertical-align:top;">max-age</td><td style="vertical-align:top;">:</td><td><div></div></td></tr><tr><td style="font-weight:bold;vertical-align:top;">path</td><td style="vertical-align:top;">:</td><td><div></div></td></tr><tr><td style="font-weight:bold;vertical-align:top;">samesite</td><td style="vertical-align:top;">:</td><td><div></div></td></tr><tr><td style="font-weight:bold;vertical-align:top;">secure</td><td style="vertical-align:top;">:</td><td><div></div></td></tr><tr><td style="font-weight:bold;vertical-align:top;">version</td><td style="vertical-align:top;">:</td><td><div></div></td></tr></table></div></td></tr><tr><td style="font-weight:bold;vertical-align:top;">session_id_review3</td><td style="vertical-align:top;">:</td><td><div>2:f6508645-8935-4398-a306-0e3fe812cee0<table><tr><td style="font-weight:bold;vertical-align:top;">comment</td><td style="vertical-align:top;">:</td><td><div></div></td></tr><tr><td style="font-weight:bold;vertical-align:top;">domain</td><td style="vertical-align:top;">:</td><td><div></div></td></tr><tr><td style="font-weight:bold;vertical-align:top;">expires</td><td style="vertical-align:top;">:</td><td><div></div></td></tr><tr><td style="font-weight:bold;vertical-align:top;">httponly</td><td style="vertical-align:top;">:</td><td><div></div></td></tr><tr><td style="font-weight:bold;vertical-align:top;">max-age</td><td style="vertical-align:top;">:</td><td><div></div></td></tr><tr><td style="font-weight:bold;vertical-align:top;">path</td><td style="vertical-align:top;">:</td><td><div></div></td></tr><tr><td style="font-weight:bold;vertical-align:top;">samesite</td><td style="vertical-align:top;">:</td><td><div></div></td></tr><tr><td style="font-weight:bold;vertical-align:top;">secure</td><td style="vertical-align:top;">:</td><td><div></div></td></tr><tr><td style="font-weight:bold;vertical-align:top;">version</td><td style="vertical-align:top;">:</td><td><div></div></td></tr></table></div></td></tr><tr><td style="font-weight:bold;vertical-align:top;">session_id_review3_hw4</td><td style="vertical-align:top;">:</td><td><div>1:a42c896b-13ef-4d84-bba7-cb9e5c7b372a<table><tr><td style="font-weight:bold;vertical-align:top;">comment</td><td style="vertical-align:top;">:</td><td><div></div></td></tr><tr><td style="font-weight:bold;vertical-align:top;">domain</td><td style="vertical-align:top;">:</td><td><div></div></td></tr><tr><td style="font-weight:bold;vertical-align:top;">expires</td><td style="vertical-align:top;">:</td><td><div></div></td></tr><tr><td style="font-weight:bold;vertical-align:top;">httponly</td><td style="vertical-align:top;">:</td><td><div></div></td></tr><tr><td style="font-weight:bold;vertical-align:top;">max-age</td><td style="vertical-align:top;">:</td><td><div></div></td></tr><tr><td style="font-weight:bold;vertical-align:top;">path</td><td style="vertical-align:top;">:</td><td><div></div></td></tr><tr><td style="font-weight:bold;vertical-align:top;">samesite</td><td style="vertical-align:top;">:</td><td><div></div></td></tr><tr><td style="font-weight:bold;vertical-align:top;">secure</td><td style="vertical-align:top;">:</td><td><div></div></td></tr><tr><td style="font-weight:bold;vertical-align:top;">version</td><td style="vertical-align:top;">:</td><td><div></div></td></tr></table></div></td></tr><tr><td style="font-weight:bold;vertical-align:top;">session_id_review4</td><td style="vertical-align:top;">:</td><td><div>2:e7ad72b8-b8a7-4e7b-916f-1d40d14d75c3<table><tr><td style="font-weight:bold;vertical-align:top;">comment</td><td style="vertical-align:top;">:</td><td><div></div></td></tr><tr><td style="font-weight:bold;vertical-align:top;">domain</td><td style="vertical-align:top;">:</td><td><div></div></td></tr><tr><td style="font-weight:bold;vertical-align:top;">expires</td><td style="vertical-align:top;">:</td><td><div></div></td></tr><tr><td style="font-weight:bold;vertical-align:top;">httponly</td><td style="vertical-align:top;">:</td><td><div></div></td></tr><tr><td style="font-weight:bold;vertical-align:top;">max-age</td><td style="vertical-align:top;">:</td><td><div></div></td></tr><tr><td style="font-weight:bold;vertical-align:top;">path</td><td style="vertical-align:top;">:</td><td><div></div></td></tr><tr><td style="font-weight:bold;vertical-align:top;">samesite</td><td style="vertical-align:top;">:</td><td><div></div></td></tr><tr><td style="font-weight:bold;vertical-align:top;">secure</td><td style="vertical-align:top;">:</td><td><div></div></td></tr><tr><td style="font-weight:bold;vertical-align:top;">version</td><td style="vertical-align:top;">:</td><td><div></div></td></tr></table></div></td></tr><tr><td style="font-weight:bold;vertical-align:top;">session_id_review4_hw4</td><td style="vertical-align:top;">:</td><td><div>1:56ed3722-0249-40a2-8030-dcb78f926215<table><tr><td style="font-weight:bold;vertical-align:top;">comment</td><td style="vertical-align:top;">:</td><td><div></div></td></tr><tr><td style="font-weight:bold;vertical-align:top;">domain</td><td style="vertical-align:top;">:</td><td><div></div></td></tr><tr><td style="font-weight:bold;vertical-align:top;">expires</td><td style="vertical-align:top;">:</td><td><div></div></td></tr><tr><td style="font-weight:bold;vertical-align:top;">httponly</td><td style="vertical-align:top;">:</td><td><div></div></td></tr><tr><td style="font-weight:bold;vertical-align:top;">max-age</td><td style="vertical-align:top;">:</td><td><div></div></td></tr><tr><td style="font-weight:bold;vertical-align:top;">path</td><td style="vertical-align:top;">:</td><td><div></div></td></tr><tr><td style="font-weight:bold;vertical-align:top;">samesite</td><td style="vertical-align:top;">:</td><td><div></div></td></tr><tr><td style="font-weight:bold;vertical-align:top;">secure</td><td style="vertical-align:top;">:</td><td><div></div></td></tr><tr><td style="font-weight:bold;vertical-align:top;">version</td><td style="vertical-align:top;">:</td><td><div></div></td></tr></table></div></td></tr><tr><td style="font-weight:bold;vertical-align:top;">session_id_review5</td><td style="vertical-align:top;">:</td><td><div>2:09a1d976-bfe2-4021-a614-36198b642891<table><tr><td style="font-weight:bold;vertical-align:top;">comment</td><td style="vertical-align:top;">:</td><td><div></div></td></tr><tr><td style="font-weight:bold;vertical-align:top;">domain</td><td style="vertical-align:top;">:</td><td><div></div></td></tr><tr><td style="font-weight:bold;vertical-align:top;">expires</td><td style="vertical-align:top;">:</td><td><div></div></td></tr><tr><td style="font-weight:bold;vertical-align:top;">httponly</td><td style="vertical-align:top;">:</td><td><div></div></td></tr><tr><td style="font-weight:bold;vertical-align:top;">max-age</td><td style="vertical-align:top;">:</td><td><div></div></td></tr><tr><td style="font-weight:bold;vertical-align:top;">path</td><td style="vertical-align:top;">:</td><td><div></div></td></tr><tr><td style="font-weight:bold;vertical-align:top;">samesite</td><td style="vertical-align:top;">:</td><td><div></div></td></tr><tr><td style="font-weight:bold;vertical-align:top;">secure</td><td style="vertical-align:top;">:</td><td><div></div></td></tr><tr><td style="font-weight:bold;vertical-align:top;">version</td><td style="vertical-align:top;">:</td><td><div></div></td></tr></table></div></td></tr><tr><td style="font-weight:bold;vertical-align:top;">session_id_review5_hw4</td><td style="vertical-align:top;">:</td><td><div>127.0.0.1-e4520930-a169-48cb-8c16-ac421c77dfdd<table><tr><td style="font-weight:bold;vertical-align:top;">comment</td><td style="vertical-align:top;">:</td><td><div></div></td></tr><tr><td style="font-weight:bold;vertical-align:top;">domain</td><td style="vertical-align:top;">:</td><td><div></div></td></tr><tr><td style="font-weight:bold;vertical-align:top;">expires</td><td style="vertical-align:top;">:</td><td><div></div></td></tr><tr><td style="font-weight:bold;vertical-align:top;">httponly</td><td style="vertical-align:top;">:</td><td><div></div></td></tr><tr><td style="font-weight:bold;vertical-align:top;">max-age</td><td style="vertical-align:top;">:</td><td><div></div></td></tr><tr><td style="font-weight:bold;vertical-align:top;">path</td><td style="vertical-align:top;">:</td><td><div></div></td></tr><tr><td style="font-weight:bold;vertical-align:top;">samesite</td><td style="vertical-align:top;">:</td><td><div></div></td></tr><tr><td style="font-weight:bold;vertical-align:top;">secure</td><td style="vertical-align:top;">:</td><td><div></div></td></tr><tr><td style="font-weight:bold;vertical-align:top;">version</td><td style="vertical-align:top;">:</td><td><div></div></td></tr></table></div></td></tr><tr><td style="font-weight:bold;vertical-align:top;">session_id_reviwe1_hw4</td><td style="vertical-align:top;">:</td><td><div>2:958d7772-35f0-4766-9ebd-46ac06e08347<table><tr><td style="font-weight:bold;vertical-align:top;">comment</td><td style="vertical-align:top;">:</td><td><div></div></td></tr><tr><td style="font-weight:bold;vertical-align:top;">domain</td><td style="vertical-align:top;">:</td><td><div></div></td></tr><tr><td style="font-weight:bold;vertical-align:top;">expires</td><td style="vertical-align:top;">:</td><td><div></div></td></tr><tr><td style="font-weight:bold;vertical-align:top;">httponly</td><td style="vertical-align:top;">:</td><td><div></div></td></tr><tr><td style="font-weight:bold;vertical-align:top;">max-age</td><td style="vertical-align:top;">:</td><td><div></div></td></tr><tr><td style="font-weight:bold;vertical-align:top;">path</td><td style="vertical-align:top;">:</td><td><div></div></td></tr><tr><td style="font-weight:bold;vertical-align:top;">samesite</td><td style="vertical-align:top;">:</td><td><div></div></td></tr><tr><td style="font-weight:bold;vertical-align:top;">secure</td><td style="vertical-align:top;">:</td><td><div></div></td></tr><tr><td style="font-weight:bold;vertical-align:top;">version</td><td style="vertical-align:top;">:</td><td><div></div></td></tr></table></div></td></tr><tr><td style="font-weight:bold;vertical-align:top;">session_id_start</td><td style="vertical-align:top;">:</td><td><div>127.0.0.1-7ded3399-9be0-4e6d-9554-6630232b772c<table><tr><td style="font-weight:bold;vertical-align:top;">comment</td><td style="vertical-align:top;">:</td><td><div></div></td></tr><tr><td style="font-weight:bold;vertical-align:top;">domain</td><td style="vertical-align:top;">:</td><td><div></div></td></tr><tr><td style="font-weight:bold;vertical-align:top;">expires</td><td style="vertical-align:top;">:</td><td><div></div></td></tr><tr><td style="font-weight:bold;vertical-align:top;">httponly</td><td style="vertical-align:top;">:</td><td><div></div></td></tr><tr><td style="font-weight:bold;vertical-align:top;">max-age</td><td style="vertical-align:top;">:</td><td><div></div></td></tr><tr><td style="font-weight:bold;vertical-align:top;">path</td><td style="vertical-align:top;">:</td><td><div></div></td></tr><tr><td style="font-weight:bold;vertical-align:top;">samesite</td><td style="vertical-align:top;">:</td><td><div></div></td></tr><tr><td style="font-weight:bold;vertical-align:top;">secure</td><td style="vertical-align:top;">:</td><td><div></div></td></tr><tr><td style="font-weight:bold;vertical-align:top;">version</td><td style="vertical-align:top;">:</td><td><div></div></td></tr></table></div></td></tr><tr><td style="font-weight:bold;vertical-align:top;">session_id_submission1</td><td style="vertical-align:top;">:</td><td><div>1:0939ef85-abbf-426f-a6b9-1b02cf89a48d<table><tr><td style="font-weight:bold;vertical-align:top;">comment</td><td style="vertical-align:top;">:</td><td><div></div></td></tr><tr><td style="font-weight:bold;vertical-align:top;">domain</td><td style="vertical-align:top;">:</td><td><div></div></td></tr><tr><td style="font-weight:bold;vertical-align:top;">expires</td><td style="vertical-align:top;">:</td><td><div></div></td></tr><tr><td style="font-weight:bold;vertical-align:top;">httponly</td><td style="vertical-align:top;">:</td><td><div></div></td></tr><tr><td style="font-weight:bold;vertical-align:top;">max-age</td><td style="vertical-align:top;">:</td><td><div></div></td></tr><tr><td style="font-weight:bold;vertical-align:top;">path</td><td style="vertical-align:top;">:</td><td><div></div></td></tr><tr><td style="font-weight:bold;vertical-align:top;">samesite</td><td style="vertical-align:top;">:</td><td><div></div></td></tr><tr><td style="font-weight:bold;vertical-align:top;">secure</td><td style="vertical-align:top;">:</td><td><div></div></td></tr><tr><td style="font-weight:bold;vertical-align:top;">version</td><td style="vertical-align:top;">:</td><td><div></div></td></tr></table></div></td></tr><tr><td style="font-weight:bold;vertical-align:top;">session_id_submission2</td><td style="vertical-align:top;">:</td><td><div>1:2497790e-6853-4df0-be24-9185f86380ad<table><tr><td style="font-weight:bold;vertical-align:top;">comment</td><td style="vertical-align:top;">:</td><td><div></div></td></tr><tr><td style="font-weight:bold;vertical-align:top;">domain</td><td style="vertical-align:top;">:</td><td><div></div></td></tr><tr><td style="font-weight:bold;vertical-align:top;">expires</td><td style="vertical-align:top;">:</td><td><div></div></td></tr><tr><td style="font-weight:bold;vertical-align:top;">httponly</td><td style="vertical-align:top;">:</td><td><div></div></td></tr><tr><td style="font-weight:bold;vertical-align:top;">max-age</td><td style="vertical-align:top;">:</td><td><div></div></td></tr><tr><td style="font-weight:bold;vertical-align:top;">path</td><td style="vertical-align:top;">:</td><td><div></div></td></tr><tr><td style="font-weight:bold;vertical-align:top;">samesite</td><td style="vertical-align:top;">:</td><td><div></div></td></tr><tr><td style="font-weight:bold;vertical-align:top;">secure</td><td style="vertical-align:top;">:</td><td><div></div></td></tr><tr><td style="font-weight:bold;vertical-align:top;">version</td><td style="vertical-align:top;">:</td><td><div></div></td></tr></table></div></td></tr><tr><td style="font-weight:bold;vertical-align:top;">session_id_submission3</td><td style="vertical-align:top;">:</td><td><div>1:1d151416-ce95-429c-ac95-45211949072e<table><tr><td style="font-weight:bold;vertical-align:top;">comment</td><td style="vertical-align:top;">:</td><td><div></div></td></tr><tr><td style="font-weight:bold;vertical-align:top;">domain</td><td style="vertical-align:top;">:</td><td><div></div></td></tr><tr><td style="font-weight:bold;vertical-align:top;">expires</td><td style="vertical-align:top;">:</td><td><div></div></td></tr><tr><td style="font-weight:bold;vertical-align:top;">httponly</td><td style="vertical-align:top;">:</td><td><div></div></td></tr><tr><td style="font-weight:bold;vertical-align:top;">max-age</td><td style="vertical-align:top;">:</td><td><div></div></td></tr><tr><td style="font-weight:bold;vertical-align:top;">path</td><td style="vertical-align:top;">:</td><td><div></div></td></tr><tr><td style="font-weight:bold;vertical-align:top;">samesite</td><td style="vertical-align:top;">:</td><td><div></div></td></tr><tr><td style="font-weight:bold;vertical-align:top;">secure</td><td style="vertical-align:top;">:</td><td><div></div></td></tr><tr><td style="font-weight:bold;vertical-align:top;">version</td><td style="vertical-align:top;">:</td><td><div></div></td></tr></table></div></td></tr><tr><td style="font-weight:bold;vertical-align:top;">session_id_submission5</td><td style="vertical-align:top;">:</td><td><div>1:6ea3843f-321c-44f8-b971-43069c663db7<table><tr><td style="font-weight:bold;vertical-align:top;">comment</td><td style="vertical-align:top;">:</td><td><div></div></td></tr><tr><td style="font-weight:bold;vertical-align:top;">domain</td><td style="vertical-align:top;">:</td><td><div></div></td></tr><tr><td style="font-weight:bold;vertical-align:top;">expires</td><td style="vertical-align:top;">:</td><td><div></div></td></tr><tr><td style="font-weight:bold;vertical-align:top;">httponly</td><td style="vertical-align:top;">:</td><td><div></div></td></tr><tr><td style="font-weight:bold;vertical-align:top;">max-age</td><td style="vertical-align:top;">:</td><td><div></div></td></tr><tr><td style="font-weight:bold;vertical-align:top;">path</td><td style="vertical-align:top;">:</td><td><div></div></td></tr><tr><td style="font-weight:bold;vertical-align:top;">samesite</td><td style="vertical-align:top;">:</td><td><div></div></td></tr><tr><td style="font-weight:bold;vertical-align:top;">secure</td><td style="vertical-align:top;">:</td><td><div></div></td></tr><tr><td style="font-weight:bold;vertical-align:top;">version</td><td style="vertical-align:top;">:</td><td><div></div></td></tr></table></div></td></tr><tr><td style="font-weight:bold;vertical-align:top;">session_id_welcome</td><td style="vertical-align:top;">:</td><td><div>127.0.0.1-df2839d9-53b2-40c0-bb51-a972b6055fdb<table><tr><td style="font-weight:bold;vertical-align:top;">comment</td><td style="vertical-align:top;">:</td><td><div></div></td></tr><tr><td style="font-weight:bold;vertical-align:top;">domain</td><td style="vertical-align:top;">:</td><td><div></div></td></tr><tr><td style="font-weight:bold;vertical-align:top;">expires</td><td style="vertical-align:top;">:</td><td><div></div></td></tr><tr><td style="font-weight:bold;vertical-align:top;">httponly</td><td style="vertical-align:top;">:</td><td><div></div></td></tr><tr><td style="font-weight:bold;vertical-align:top;">max-age</td><td style="vertical-align:top;">:</td><td><div></div></td></tr><tr><td style="font-weight:bold;vertical-align:top;">path</td><td style="vertical-align:top;">:</td><td><div></div></td></tr><tr><td style="font-weight:bold;vertical-align:top;">samesite</td><td style="vertical-align:top;">:</td><td><div></div></td></tr><tr><td style="font-weight:bold;vertical-align:top;">secure</td><td style="vertical-align:top;">:</td><td><div></div></td></tr><tr><td style="font-weight:bold;vertical-align:top;">version</td><td style="vertical-align:top;">:</td><td><div></div></td></tr></table></div></td></tr></table></div></td></tr><tr><td style="font-weight:bold;vertical-align:top;">env</td><td style="vertical-align:top;">:</td><td><div><table><tr><td style="font-weight:bold;vertical-align:top;">HTTP_ACCEPT</td><td style="vertical-align:top;">:</td><td><div>text/html,application/xhtml+xml,application/xml;q=0.9,image/webp,image/apng,*/*;q=0.8</div></td></tr><tr><td style="font-weight:bold;vertical-align:top;">HTTP_ACCEPT_ENCODING</td><td style="vertical-align:top;">:</td><td><div>gzip, deflate, br</div></td></tr><tr><td style="font-weight:bold;vertical-align:top;">HTTP_ACCEPT_LANGUAGE</td><td style="vertical-align:top;">:</td><td><div>en-US,en;q=0.9,zh-TW;q=0.8,zh;q=0.7,zh-CN;q=0.6</div></td></tr><tr><td style="font-weight:bold;vertical-align:top;">HTTP_CONNECTION</td><td style="vertical-align:top;">:</td><td><div>keep-alive</div></td></tr><tr><td style="font-weight:bold;vertical-align:top;">HTTP_COOKIE</td><td style="vertical-align:top;">:</td><td><div>adminLanguage=en; session_id_submission1=&quot;1:0939ef85-abbf-426f-a6b9-1b02cf89a48d&quot;; session_id_submission2=&quot;1:2497790e-6853-4df0-be24-9185f86380ad&quot;; session_id_submission3=&quot;1:1d151416-ce95-429c-ac95-45211949072e&quot;; session_id_submission5=&quot;1:6ea3843f-321c-44f8-b971-43069c663db7&quot;; session_id_start=127.0.0.1-7ded3399-9be0-4e6d-9554-6630232b772c; session_id_master=&quot;1:a31acbd6-ac68-4176-accb-abceed131f47&quot;; session_id_hw2=&quot;4:edd636a8-eebf-4499-ac1f-1d2231bebea4&quot;; session_id_hw3=&quot;7:3ff9edef-87af-4448-8c7e-0c613d3e8dd0&quot;; session_id_review5=&quot;2:09a1d976-bfe2-4021-a614-36198b642891&quot;; session_id_review4=&quot;2:e7ad72b8-b8a7-4e7b-916f-1d40d14d75c3&quot;; session_id_review3=&quot;2:f6508645-8935-4398-a306-0e3fe812cee0&quot;; session_id_review1=&quot;2:732e6c55-4ac5-4af8-813e-a7c768f1645b&quot;; session_id_hw4=&quot;3:dfa5d7a4-7ad6-46ed-a3a1-7880c4946a13&quot;; session_id_reviwe1_hw4=&quot;2:958d7772-35f0-4766-9ebd-46ac06e08347&quot;; session_id_review2_hw4=&quot;1:8a9f21e2-42d6-4fee-92df-21e0ee558939&quot;; session_id_review3_hw4=&quot;1:a42c896b-13ef-4d84-bba7-cb9e5c7b372a&quot;; session_id_review4_hw4=&quot;1:56ed3722-0249-40a2-8030-dcb78f926215&quot;; session_id_review5_hw4=127.0.0.1-e4520930-a169-48cb-8c16-ac421c77dfdd; session_id_lifetracker=&quot;2:e5a0db50-3fc5-4c0f-9c93-1ec80d075e87&quot;; session_id_admin=127.0.0.1-ce700a5f-e930-4508-8082-fd38e1af1e85; session_id_welcome=127.0.0.1-df2839d9-53b2-40c0-bb51-a972b6055fdb</div></td></tr><tr><td style="font-weight:bold;vertical-align:top;">HTTP_HOST</td><td style="vertical-align:top;">:</td><td><div>127.0.0.1:8000</div></td></tr><tr><td style="font-weight:bold;vertical-align:top;">HTTP_UPGRADE_INSECURE_REQUESTS</td><td style="vertical-align:top;">:</td><td><div>1</div></td></tr><tr><td style="font-weight:bold;vertical-align:top;">HTTP_USER_AGENT</td><td style="vertical-align:top;">:</td><td><div>Mozilla/5.0 (Macintosh; Intel Mac OS X 10_14_0) AppleWebKit/537.36 (KHTML, like Gecko) Chrome/70.0.3538.77 Safari/537.36</div></td></tr><tr><td style="font-weight:bold;vertical-align:top;">PATH_INFO</td><td style="vertical-align:top;">:</td><td><div>/lifeTracker/default/index</div></td></tr><tr><td style="font-weight:bold;vertical-align:top;">QUERY_STRING</td><td style="vertical-align:top;">:</td><td><div></div></td></tr><tr><td style="font-weight:bold;vertical-align:top;">REMOTE_ADDR</td><td style="vertical-align:top;">:</td><td><div>127.0.0.1</div></td></tr><tr><td style="font-weight:bold;vertical-align:top;">REMOTE_PORT</td><td style="vertical-align:top;">:</td><td><div>61358</div></td></tr><tr><td style="font-weight:bold;vertical-align:top;">REQUEST_METHOD</td><td style="vertical-align:top;">:</td><td><div>GET</div></td></tr><tr><td style="font-weight:bold;vertical-align:top;">SCRIPT_NAME</td><td style="vertical-align:top;">:</td><td><div></div></td></tr><tr><td style="font-weight:bold;vertical-align:top;">SERVER_NAME</td><td style="vertical-align:top;">:</td><td><div>Airis-MacBook-Pro.local</div></td></tr><tr><td style="font-weight:bold;vertical-align:top;">SERVER_PORT</td><td style="vertical-align:top;">:</td><td><div>8000</div></td></tr><tr><td style="font-weight:bold;vertical-align:top;">SERVER_PROTOCOL</td><td style="vertical-align:top;">:</td><td><div>HTTP/1.1</div></td></tr><tr><td style="font-weight:bold;vertical-align:top;">SERVER_SOFTWARE</td><td style="vertical-align:top;">:</td><td><div>Rocket 1.2.6</div></td></tr><tr><td style="font-weight:bold;vertical-align:top;">app_folders</td><td style="vertical-align:top;">:</td><td><div>set([&#x27;/Users/itsaireee/Desktop/aifukush/CMPS183/lifeTracker/web2py/applications/welcome/&#x27;, &#x27;/Users/itsaireee/Desktop/aifukush/CMPS183/lifeTracker/web2py/applications/admin/&#x27;, &#x27;/Users/itsaireee/Desktop/aifukush/CMPS183/lifeTracker/web2py/applications/lifeTracker/&#x27;])</div></td></tr><tr><td style="font-weight:bold;vertical-align:top;">applications_parent</td><td style="vertical-align:top;">:</td><td><div>/Users/itsaireee/Desktop/aifukush/CMPS183/lifeTracker/web2py</div></td></tr><tr><td style="font-weight:bold;vertical-align:top;">cmd_args</td><td style="vertical-align:top;">:</td><td><div><table></table></div></td></tr><tr><td style="font-weight:bold;vertical-align:top;">cmd_options</td><td style="vertical-align:top;">:</td><td><div>&lt;Values at 0x10aa50a28: {&#x27;verbose&#x27;: False, &#x27;ip&#x27;: &#x27;127.0.0.1&#x27;, &#x27;debuglevel&#x27;: 30, &#x27;with_scheduler&#x27;: False, &#x27;shutdown_timeout&#x27;: 5, &#x27;taskbar&#x27;: False, &#x27;with_coverage&#x27;: False, &#x27;pid_filename&#x27;: &#x27;httpserver.pid&#x27;, &#x27;maxthreads&#x27;: None, &#x27;softcron&#x27;: False, &#x27;server_name&#x27;: &#x27;Airis-MacBook-Pro.local&#x27;, &#x27;bpython&#x27;: False, &#x27;nogui&#x27;: False, &#x27;port&#x27;: 8000, &#x27;print_errors&#x27;: True, &#x27;extcron&#x27;: False, &#x27;runcron&#x27;: False, &#x27;run_system_tests&#x27;: False, &#x27;test&#x27;: None, &#x27;folder&#x27;: &#x27;/Users/itsaireee/Desktop/aifukush/CMPS183/lifeTracker/web2py&#x27;, &#x27;config&#x27;: &#x27;&#x27;, &#x27;minthreads&#x27;: None, &#x27;shell&#x27;: None, &#x27;run&#x27;: &#x27;&#x27;, &#x27;log_filename&#x27;: &#x27;httpserver.log&#x27;, &#x27;profiler_dir&#x27;: None, &#x27;args&#x27;: [&#x27;&#x27;], &#x27;socket_timeout&#x27;: 5, &#x27;ssl_ca_certificate&#x27;: None, &#x27;scheduler&#x27;: None, &#x27;interfaces&#x27;: None, &#x27;ssl_private_key&#x27;: &#x27;&#x27;, &#x27;gae&#x27;: None, &#x27;password&#x27;: &#x27;******&#x27;, &#x27;request_queue_size&#x27;: 5, &#x27;ssl_certificate&#x27;: &#x27;&#x27;, &#x27;cronjob&#x27;: False, &#x27;numthreads&#x27;: None, &#x27;quiet&#x27;: False, &#x27;import_models&#x27;: False, &#x27;timeout&#x27;: 10, &#x27;plain&#x27;: False, &#x27;nobanner&#x27;: False}&gt;</div></td></tr><tr><td style="font-weight:bold;vertical-align:top;">db_sessions</td><td style="vertical-align:top;">:</td><td><div>set([&#x27;lifeTracker&#x27;])</div></td></tr><tr><td style="font-weight:bold;vertical-align:top;">debugging</td><td style="vertical-align:top;">:</td><td><div>False</div></td></tr><tr><td style="font-weight:bold;vertical-align:top;">gluon_parent</td><td style="vertical-align:top;">:</td><td><div>/Users/itsaireee/Desktop/aifukush/CMPS183/lifeTracker/web2py</div></td></tr><tr><td style="font-weight:bold;vertical-align:top;">http_accept</td><td style="vertical-align:top;">:</td><td><div>text/html,application/xhtml+xml,application/xml;q=0.9,image/webp,image/apng,*/*;q=0.8</div></td></tr><tr><td style="font-weight:bold;vertical-align:top;">http_accept_encoding</td><td style="vertical-align:top;">:</td><td><div>gzip, deflate, br</div></td></tr><tr><td style="font-weight:bold;vertical-align:top;">http_accept_language</td><td style="vertical-align:top;">:</td><td><div>en-US,en;q=0.9,zh-TW;q=0.8,zh;q=0.7,zh-CN;q=0.6</div></td></tr><tr><td style="font-weight:bold;vertical-align:top;">http_connection</td><td style="vertical-align:top;">:</td><td><div>keep-alive</div></td></tr><tr><td style="font-weight:bold;vertical-align:top;">http_cookie</td><td style="vertical-align:top;">:</td><td><div>adminLanguage=en; session_id_submission1=&quot;1:0939ef85-abbf-426f-a6b9-1b02cf89a48d&quot;; session_id_submission2=&quot;1:2497790e-6853-4df0-be24-9185f86380ad&quot;; session_id_submission3=&quot;1:1d151416-ce95-429c-ac95-45211949072e&quot;; session_id_submission5=&quot;1:6ea3843f-321c-44f8-b971-43069c663db7&quot;; session_id_start=127.0.0.1-7ded3399-9be0-4e6d-9554-6630232b772c; session_id_master=&quot;1:a31acbd6-ac68-4176-accb-abceed131f47&quot;; session_id_hw2=&quot;4:edd636a8-eebf-4499-ac1f-1d2231bebea4&quot;; session_id_hw3=&quot;7:3ff9edef-87af-4448-8c7e-0c613d3e8dd0&quot;; session_id_review5=&quot;2:09a1d976-bfe2-4021-a614-36198b642891&quot;; session_id_review4=&quot;2:e7ad72b8-b8a7-4e7b-916f-1d40d14d75c3&quot;; session_id_review3=&quot;2:f6508645-8935-4398-a306-0e3fe812cee0&quot;; session_id_review1=&quot;2:732e6c55-4ac5-4af8-813e-a7c768f1645b&quot;; session_id_hw4=&quot;3:dfa5d7a4-7ad6-46ed-a3a1-7880c4946a13&quot;; session_id_reviwe1_hw4=&quot;2:958d7772-35f0-4766-9ebd-46ac06e08347&quot;; session_id_review2_hw4=&quot;1:8a9f21e2-42d6-4fee-92df-21e0ee558939&quot;; session_id_review3_hw4=&quot;1:a42c896b-13ef-4d84-bba7-cb9e5c7b372a&quot;; session_id_review4_hw4=&quot;1:56ed3722-0249-40a2-8030-dcb78f926215&quot;; session_id_review5_hw4=127.0.0.1-e4520930-a169-48cb-8c16-ac421c77dfdd; session_id_lifetracker=&quot;2:e5a0db50-3fc5-4c0f-9c93-1ec80d075e87&quot;; session_id_admin=127.0.0.1-ce700a5f-e930-4508-8082-fd38e1af1e85; session_id_welcome=127.0.0.1-df2839d9-53b2-40c0-bb51-a972b6055fdb</div></td></tr><tr><td style="font-weight:bold;vertical-align:top;">http_host</td><td style="vertical-align:top;">:</td><td><div>127.0.0.1:8000</div></td></tr><tr><td style="font-weight:bold;vertical-align:top;">http_upgrade_insecure_requests</td><td style="vertical-align:top;">:</td><td><div>1</div></td></tr><tr><td style="font-weight:bold;vertical-align:top;">http_user_agent</td><td style="vertical-align:top;">:</td><td><div>Mozilla/5.0 (Macintosh; Intel Mac OS X 10_14_0) AppleWebKit/537.36 (KHTML, like Gecko) Chrome/70.0.3538.77 Safari/537.36</div></td></tr><tr><td style="font-weight:bold;vertical-align:top;">is_jython</td><td style="vertical-align:top;">:</td><td><div>False</div></td></tr><tr><td style="font-weight:bold;vertical-align:top;">is_py2</td><td style="vertical-align:top;">:</td><td><div>True</div></td></tr><tr><td style="font-weight:bold;vertical-align:top;">is_pypy</td><td style="vertical-align:top;">:</td><td><div>False</div></td></tr><tr><td style="font-weight:bold;vertical-align:top;">is_source</td><td style="vertical-align:top;">:</td><td><div>True</div></td></tr><tr><td style="font-weight:bold;vertical-align:top;">local_hosts</td><td style="vertical-align:top;">:</td><td><div><table><tr><td><div>fe80::14ac:4b3c:ab76:3f79%en0</div></td></tr><tr><td><div>::ffff:127.0.0.1</div></td></tr><tr><td><div>::1</div></td></tr><tr><td><div>192.168.1.5</div></td></tr><tr><td><div>127.0.0.1</div></td></tr><tr><td><div>Airis-MacBook-Pro.local</div></td></tr></table></div></td></tr><tr><td style="font-weight:bold;vertical-align:top;">path_info</td><td style="vertical-align:top;">:</td><td><div>/lifeTracker/default/index</div></td></tr><tr><td style="font-weight:bold;vertical-align:top;">query_string</td><td style="vertical-align:top;">:</td><td><div></div></td></tr><tr><td style="font-weight:bold;vertical-align:top;">remote_addr</td><td style="vertical-align:top;">:</td><td><div>127.0.0.1</div></td></tr><tr><td style="font-weight:bold;vertical-align:top;">remote_port</td><td style="vertical-align:top;">:</td><td><div>61358</div></td></tr><tr><td style="font-weight:bold;vertical-align:top;">request_method</td><td style="vertical-align:top;">:</td><td><div>GET</div></td></tr><tr><td style="font-weight:bold;vertical-align:top;">request_uri</td><td style="vertical-align:top;">:</td><td><div>/lifeTracker/default/index</div></td></tr><tr><td style="font-weight:bold;vertical-align:top;">script_name</td><td style="vertical-align:top;">:</td><td><div></div></td></tr><tr><td style="font-weight:bold;vertical-align:top;">server_name</td><td style="vertical-align:top;">:</td><td><div>Airis-MacBook-Pro.local</div></td></tr><tr><td style="font-weight:bold;vertical-align:top;">server_port</td><td style="vertical-align:top;">:</td><td><div>8000</div></td></tr><tr><td style="font-weight:bold;vertical-align:top;">server_protocol</td><td style="vertical-align:top;">:</td><td><div>HTTP/1.1</div></td></tr><tr><td style="font-weight:bold;vertical-align:top;">server_software</td><td style="vertical-align:top;">:</td><td><div>Rocket 1.2.6</div></td></tr><tr><td style="font-weight:bold;vertical-align:top;">web2py_path</td><td style="vertical-align:top;">:</td><td><div>/Users/itsaireee/Desktop/aifukush/CMPS183/lifeTracker/web2py</div></td></tr><tr><td style="font-weight:bold;vertical-align:top;">web2py_version</td><td style="vertical-align:top;">:</td><td><div>2.17.2-stable+timestamp.2018.10.06.18.54.02</div></td></tr><tr><td style="font-weight:bold;vertical-align:top;">wsgi.errors</td><td style="vertical-align:top;">:</td><td><div>&lt;open file &#x27;&lt;stderr&gt;&#x27;, mode &#x27;w&#x27; at 0x10898c1e0&gt;</div></td></tr><tr><td style="font-weight:bold;vertical-align:top;">wsgi.file_wrapper</td><td style="vertical-align:top;">:</td><td><div>&lt;class wsgiref.util.FileWrapper at 0x10a1c7e20&gt;</div></td></tr><tr><td style="font-weight:bold;vertical-align:top;">wsgi.input</td><td style="vertical-align:top;">:</td><td><div>&lt;socket._fileobject object at 0x110453ed0&gt;</div></td></tr><tr><td style="font-weight:bold;vertical-align:top;">wsgi.multiprocess</td><td style="vertical-align:top;">:</td><td><div>False</div></td></tr><tr><td style="font-weight:bold;vertical-align:top;">wsgi.multithread</td><td style="vertical-align:top;">:</td><td><div>True</div></td></tr><tr><td style="font-weight:bold;vertical-align:top;">wsgi.run_once</td><td style="vertical-align:top;">:</td><td><div>False</div></td></tr><tr><td style="font-weight:bold;vertical-align:top;">wsgi.url_scheme</td><td style="vertical-align:top;">:</td><td><div>http</div></td></tr><tr><td style="font-weight:bold;vertical-align:top;">wsgi.version</td><td style="vertical-align:top;">:</td><td><div><table><tr><td><div>1</div></td></tr><tr><td><div>0</div></td></tr></table></div></td></tr><tr><td style="font-weight:bold;vertical-align:top;">wsgi_errors</td><td style="vertical-align:top;">:</td><td><div>&lt;open file &#x27;&lt;stderr&gt;&#x27;, mode &#x27;w&#x27; at 0x10898c1e0&gt;</div></td></tr><tr><td style="font-weight:bold;vertical-align:top;">wsgi_file_wrapper</td><td style="vertical-align:top;">:</td><td><div>&lt;class wsgiref.util.FileWrapper at 0x10a1c7e20&gt;</div></td></tr><tr><td style="font-weight:bold;vertical-align:top;">wsgi_input</td><td style="vertical-align:top;">:</td><td><div>&lt;socket._fileobject object at 0x110453ed0&gt;</div></td></tr><tr><td style="font-weight:bold;vertical-align:top;">wsgi_multiprocess</td><td style="vertical-align:top;">:</td><td><div>False</div></td></tr><tr><td style="font-weight:bold;vertical-align:top;">wsgi_multithread</td><td style="vertical-align:top;">:</td><td><div>True</div></td></tr><tr><td style="font-weight:bold;vertical-align:top;">wsgi_run_once</td><td style="vertical-align:top;">:</td><td><div>False</div></td></tr><tr><td style="font-weight:bold;vertical-align:top;">wsgi_url_scheme</td><td style="vertical-align:top;">:</td><td><div>http</div></td></tr><tr><td style="font-weight:bold;vertical-align:top;">wsgi_version</td><td style="vertical-align:top;">:</td><td><div><table><tr><td><div>1</div></td></tr><tr><td><div>0</div></td></tr></table></div></td></tr></table></div></td></tr><tr><td style="font-weight:bold;vertical-align:top;">extension</td><td style="vertical-align:top;">:</td><td><div>html</div></td></tr><tr><td style="font-weight:bold;vertical-align:top;">folder</td><td style="vertical-align:top;">:</td><td><div>/Users/itsaireee/Desktop/aifukush/CMPS183/lifeTracker/web2py/applications/lifeTracker/</div></td></tr><tr><td style="font-weight:bold;vertical-align:top;">function</td><td style="vertical-align:top;">:</td><td><div>index</div></td></tr><tr><td style="font-weight:bold;vertical-align:top;">global_settings</td><td style="vertical-align:top;">:</td><td><div><table><tr><td style="font-weight:bold;vertical-align:top;">app_folders</td><td style="vertical-align:top;">:</td><td><div>set([&#x27;/Users/itsaireee/Desktop/aifukush/CMPS183/lifeTracker/web2py/applications/welcome/&#x27;, &#x27;/Users/itsaireee/Desktop/aifukush/CMPS183/lifeTracker/web2py/applications/admin/&#x27;, &#x27;/Users/itsaireee/Desktop/aifukush/CMPS183/lifeTracker/web2py/applications/lifeTracker/&#x27;])</div></td></tr><tr><td style="font-weight:bold;vertical-align:top;">applications_parent</td><td style="vertical-align:top;">:</td><td><div>/Users/itsaireee/Desktop/aifukush/CMPS183/lifeTracker/web2py</div></td></tr><tr><td style="font-weight:bold;vertical-align:top;">cmd_args</td><td style="vertical-align:top;">:</td><td><div><table></table></div></td></tr><tr><td style="font-weight:bold;vertical-align:top;">cmd_options</td><td style="vertical-align:top;">:</td><td><div>&lt;Values at 0x10aa50a28: {&#x27;verbose&#x27;: False, &#x27;ip&#x27;: &#x27;127.0.0.1&#x27;, &#x27;debuglevel&#x27;: 30, &#x27;with_scheduler&#x27;: False, &#x27;shutdown_timeout&#x27;: 5, &#x27;taskbar&#x27;: False, &#x27;with_coverage&#x27;: False, &#x27;pid_filename&#x27;: &#x27;httpserver.pid&#x27;, &#x27;maxthreads&#x27;: None, &#x27;softcron&#x27;: False, &#x27;server_name&#x27;: &#x27;Airis-MacBook-Pro.local&#x27;, &#x27;bpython&#x27;: False, &#x27;nogui&#x27;: False, &#x27;port&#x27;: 8000, &#x27;print_errors&#x27;: True, &#x27;extcron&#x27;: False, &#x27;runcron&#x27;: False, &#x27;run_system_tests&#x27;: False, &#x27;test&#x27;: None, &#x27;folder&#x27;: &#x27;/Users/itsaireee/Desktop/aifukush/CMPS183/lifeTracker/web2py&#x27;, &#x27;config&#x27;: &#x27;&#x27;, &#x27;minthreads&#x27;: None, &#x27;shell&#x27;: None, &#x27;run&#x27;: &#x27;&#x27;, &#x27;log_filename&#x27;: &#x27;httpserver.log&#x27;, &#x27;profiler_dir&#x27;: None, &#x27;args&#x27;: [&#x27;&#x27;], &#x27;socket_timeout&#x27;: 5, &#x27;ssl_ca_certificate&#x27;: None, &#x27;scheduler&#x27;: None, &#x27;interfaces&#x27;: None, &#x27;ssl_private_key&#x27;: &#x27;&#x27;, &#x27;gae&#x27;: None, &#x27;password&#x27;: &#x27;******&#x27;, &#x27;request_queue_size&#x27;: 5, &#x27;ssl_certificate&#x27;: &#x27;&#x27;, &#x27;cronjob&#x27;: False, &#x27;numthreads&#x27;: None, &#x27;quiet&#x27;: False, &#x27;import_models&#x27;: False, &#x27;timeout&#x27;: 10, &#x27;plain&#x27;: False, &#x27;nobanner&#x27;: False}&gt;</div></td></tr><tr><td style="font-weight:bold;vertical-align:top;">db_sessions</td><td style="vertical-align:top;">:</td><td><div>set([&#x27;lifeTracker&#x27;])</div></td></tr><tr><td style="font-weight:bold;vertical-align:top;">debugging</td><td style="vertical-align:top;">:</td><td><div>False</div></td></tr><tr><td style="font-weight:bold;vertical-align:top;">gluon_parent</td><td style="vertical-align:top;">:</td><td><div>/Users/itsaireee/Desktop/aifukush/CMPS183/lifeTracker/web2py</div></td></tr><tr><td style="font-weight:bold;vertical-align:top;">is_jython</td><td style="vertical-align:top;">:</td><td><div>False</div></td></tr><tr><td style="font-weight:bold;vertical-align:top;">is_py2</td><td style="vertical-align:top;">:</td><td><div>True</div></td></tr><tr><td style="font-weight:bold;vertical-align:top;">is_pypy</td><td style="vertical-align:top;">:</td><td><div>False</div></td></tr><tr><td style="font-weight:bold;vertical-align:top;">is_source</td><td style="vertical-align:top;">:</td><td><div>True</div></td></tr><tr><td style="font-weight:bold;vertical-align:top;">local_hosts</td><td style="vertical-align:top;">:</td><td><div><table><tr><td><div>fe80::14ac:4b3c:ab76:3f79%en0</div></td></tr><tr><td><div>::ffff:127.0.0.1</div></td></tr><tr><td><div>::1</div></td></tr><tr><td><div>192.168.1.5</div></td></tr><tr><td><div>127.0.0.1</div></td></tr><tr><td><div>Airis-MacBook-Pro.local</div></td></tr></table></div></td></tr><tr><td style="font-weight:bold;vertical-align:top;">web2py_version</td><td style="vertical-align:top;">:</td><td><div>2.17.2-stable+timestamp.2018.10.06.18.54.02</div></td></tr></table></div></td></tr><tr><td style="font-weight:bold;vertical-align:top;">is_https</td><td style="vertical-align:top;">:</td><td><div>False</div></td></tr><tr><td style="font-weight:bold;vertical-align:top;">is_local</td><td style="vertical-align:top;">:</td><td><div>True</div></td></tr><tr><td style="font-weight:bold;vertical-align:top;">is_restful</td><td style="vertical-align:top;">:</td><td><div>False</div></td></tr><tr><td style="font-weight:bold;vertical-align:top;">is_scheduler</td><td style="vertical-align:top;">:</td><td><div>False</div></td></tr><tr><td style="font-weight:bold;vertical-align:top;">is_shell</td><td style="vertical-align:top;">:</td><td><div>False</div></td></tr><tr><td style="font-weight:bold;vertical-align:top;">method</td><td style="vertical-align:top;">:</td><td><div>GET</div></td></tr><tr><td style="font-weight:bold;vertical-align:top;">now</td><td style="vertical-align:top;">:</td><td><div>datetime.datetime(2018, 11, 28, 13, 11, 26, 569009)</div></td></tr><tr><td style="font-weight:bold;vertical-align:top;">raw_args</td><td style="vertical-align:top;">:</td><td><div></div></td></tr><tr><td style="font-weight:bold;vertical-align:top;">raw_extension</td><td style="vertical-align:top;">:</td><td><div>None</div></td></tr><tr><td style="font-weight:bold;vertical-align:top;">url</td><td style="vertical-align:top;">:</td><td><div>/lifeTracker/default/index</div></td></tr><tr><td style="font-weight:bold;vertical-align:top;">utcnow</td><td style="vertical-align:top;">:</td><td><div>datetime.datetime(2018, 11, 28, 21, 11, 26, 569079)</div></td></tr><tr><td style="font-weight:bold;vertical-align:top;">wsgi</td><td style="vertical-align:top;">:</td><td><div>&lt;gluon.main.LazyWSGI object at 0x1108691d0&gt;</div></td></tr></table></div>'
tRp64
sS'frames'
p65
(lp66
(dp67
S'file'
p68
S'/Users/itsaireee/Desktop/aifukush/CMPS183/lifeTracker/web2py/gluon/restricted.py'
p69
sS'dump'
p70
(dp71
S'environment'
p72
S"{'A': <class 'gluon.html.A'>, 'ANY_OF': <class 'gluon.validators.ANY_OF'>, 'ASSIGNJS': <function ASSIGNJS>, 'AppConfig': <function AppConfig>, 'B': <class 'gluon.html.B'>, 'BEAUTIFY': <class 'gluon.html.BEAUTIFY'>, 'BODY': <class 'gluon.html.BODY'>, 'BR': <class 'gluon.html.BR'>, 'BUTTON': <class 'gluon.html.BUTTON'>, 'CAT': <class 'gluon.html.CAT'>, ...}"
p73
sS'ccode'
p74
S'<code object <module> at 0x11053e3b0, file "/Use...y/applications/lifeTracker/models/db.py", line 6>'
p75
ssS'lnum'
p76
I219
sS'lines'
p77
(dp78
I214
S'    if environment is None:'
p79
sI215
S'        environment = {}'
p80
sI216
S"    environment['__file__'] = layer"
p81
sI217
S"    environment['__name__'] = '__restricted__'"
p82
sI218
S'    try:'
p83
sI219
S'        exec(ccode, environment)'
p84
sI220
S'    except HTTP:'
p85
sI221
S'        raise'
p86
sI222
S'    except RestrictedError:'
p87
sI223
S'        # do not encapsulate (obfuscate) the original RestrictedError'
p88
ssS'call'
p89
S'(ccode=<code object <module> at 0x11053e3b0, file "/Use...y/applications/lifeTracker/models/db.py", line 6>, environment={\'A\': <class \'gluon.html.A\'>, \'ANY_OF\': <class \'gluon.validators.ANY_OF\'>, \'ASSIGNJS\': <function ASSIGNJS>, \'AppConfig\': <function AppConfig>, \'B\': <class \'gluon.html.B\'>, \'BEAUTIFY\': <class \'gluon.html.BEAUTIFY\'>, \'BODY\': <class \'gluon.html.BODY\'>, \'BR\': <class \'gluon.html.BR\'>, \'BUTTON\': <class \'gluon.html.BUTTON\'>, \'CAT\': <class \'gluon.html.CAT\'>, ...}, layer=\'/Users/itsaireee/Desktop/aifukush/CMPS183/lifeTracker/web2py/applications/lifeTracker/models/db.py\', scode=<code object <module> at 0x11053e3b0, file "/Use...y/applications/lifeTracker/models/db.py", line 6>)'
p90
sS'func'
p91
S'restricted'
p92
sa(dp93
g68
S'/Users/itsaireee/Desktop/aifukush/CMPS183/lifeTracker/web2py/applications/lifeTracker/models/db.py'
p94
sg70
(dp95
S'db'
p96
S'<DAL uri="sqlite://storage.sqlite">'
p97
sS'session.connect'
p98
S'<bound method Session.connect of <Storage {}>>'
p99
sS'session'
p100
S'<Storage {}>'
p101
sS'request'
p102
S"<Storage {'function': 'index', 'cookies': <Simpl...False, 'is_https': False, 'client': '127.0.0.1'}>"
p103
sS'response'
p104
S"<Storage {'body': <cStringIO.StringO object at 0...y, session_data)>, 'view': 'default/index.html'}>"
p105
ssg76
I26
sg77
(dp106
I21
S"    db = DAL(myconf.get('db.uri'),"
p107
sI22
S"             pool_size=myconf.get('db.pool_size'),"
p108
sI23
S"             migrate_enabled=myconf.get('db.migrate'),"
p109
sI24
S"             check_reserved=['all'])"
p110
sI25
S'    # I like to keep the session in the db.'
p111
sI26
S'    session.connect(request, response, db=db)'
p112
sI27
S'else:'
p113
sI28
S"    # connect to Google BigTable (optional 'google:datastore://namespace')"
p114
sI29
S"    db = DAL('google:datastore+ndb')"
p115
sI30
S'    # store sessions and tickets there'
p116
ssg89
S'()'
p117
sg91
S'<module>'
p118
sa(dp119
g68
S'/Users/itsaireee/Desktop/aifukush/CMPS183/lifeTracker/web2py/gluon/globals.py'
p120
sg70
(dp121
S'record_id'
p122
S'2L'
p123
sS'table'
p124
S'<Table web2py_session_lifeTracker (id, locked, c...me, modified_datetime, unique_key, session_data)>'
p125
sS'unique_key'
p126
S"'e5a0db50-3fc5-4c0f-9c93-1ec80d075e87'"
p127
sS'row'
p128
S'undefined'
p129
ssg76
I967
sg77
(dp130
I962
S'                except (TypeError, ValueError):'
p131
sI963
S'                    record_id = None'
p132
sI964
S''
sI965
S'                # Select from database'
p133
sI966
S'                if record_id:'
p134
sI967
S'                    row = table(record_id, unique_key=unique_key)'
p135
sI968
S'                    # Make sure the session data exists in the database'
p136
sI969
S'                    if row:'
p137
sI970
S'                        # rows[0].update_record(locked=True)'
p138
sI971
S'                        # Unpickle the data'
p139
ssg89
S'(self=<Storage {}>, request=<Storage {\'function\': \'index\', \'cookies\': <Simpl...False, \'is_https\': False, \'client\': \'127.0.0.1\'}>, response=<Storage {\'body\': <cStringIO.StringO object at 0...y, session_data)>, \'view\': \'default/index.html\'}>, db=<DAL uri="sqlite://storage.sqlite">, tablename=\'web2py_session\', masterapp=\'lifeTracker\', migrate=True, separate=None, check_client=False, cookie_key=None, cookie_expires=None, compression_level=None)'
p140
sg91
S'connect'
p141
sa(dp142
g68
S'/Users/itsaireee/Desktop/aifukush/CMPS183/lifeTracker/web2py/gluon/packages/dal/pydal/objects.py'
p143
sg70
(dp144
S'orderby_on_limitby'
p145
g129
sS').first'
p146
g129
sS'builtinFalse'
p147
S'False'
p148
ssg76
I584
sg77
(dp149
I579
S'            else:'
p150
sI580
S'                record = self._db(self._id == key).select('
p151
sI581
S'                    limitby=(0, 1),'
p152
sI582
S'                    for_update=for_update,'
p153
sI583
S'                    orderby=orderby,'
p154
sI584
S'                    orderby_on_limitby=False).first()'
p155
sI585
S'            if record:'
p156
sI586
S'                for k, v in iteritems(kwargs):'
p157
sI587
S'                    if record[k] != v:'
p158
sI588
S'                        return None'
p159
ssg89
S"(self=<Table web2py_session_lifeTracker (id, locked, c...me, modified_datetime, unique_key, session_data)>, key=2L, **kwargs={'unique_key': 'e5a0db50-3fc5-4c0f-9c93-1ec80d075e87'})"
p160
sg91
S'__call__'
p161
sa(dp162
g68
S'/Users/itsaireee/Desktop/aifukush/CMPS183/lifeTracker/web2py/gluon/packages/dal/pydal/objects.py'
p163
sg70
(dp164
S'self.query'
p165
S'<Query ("web2py_session_lifeTracker"."id" = 2)>'
p166
sS'adapter.select'
p167
S'<bound method SQLite.select of <pydal.adapters.sqlite.SQLite object>>'
p168
sS'fields'
p169
S'[<pydal.objects.Field object>, <pydal.objects.Field object>, <pydal.objects.Field object>, <pydal.objects.Field object>, <pydal.objects.Field object>, <pydal.objects.Field object>, <pydal.objects.Field object>]'
p170
sS'adapter'
p171
S'<pydal.adapters.sqlite.SQLite object>'
p172
sS'attributes'
p173
S"{'for_update': False, 'limitby': (0, 1), 'orderby': None, 'orderby_on_limitby': False}"
p174
sS'self'
p175
S'<Set ("web2py_session_lifeTracker"."id" = 2)>'
p176
ssg76
I2275
sg77
(dp177
I2272
S"                                    attributes.get('orderby', None),"
p178
sI2273
S"                                    attributes.get('groupby', None))"
p179
sI2274
S'        fields = adapter.expand_all(fields, tablenames)'
p180
sI2275
S'        return adapter.select(self.query, fields, attributes)'
p181
sI2276
S''
sI2277
S'    def iterselect(self, *fields, **attributes):'
p182
sI2278
S'        adapter = self.db._adapter'
p183
sI2279
S'        tablenames = adapter.tables(self.query,'
p184
sI2270
S"                                    attributes.get('join', None),"
p185
sI2271
S"                                    attributes.get('left', None),"
p186
ssg89
S'(self=<Set ("web2py_session_lifeTracker"."id" = 2)>, *fields=[<pydal.objects.Field object>, <pydal.objects.Field object>, <pydal.objects.Field object>, <pydal.objects.Field object>, <pydal.objects.Field object>, <pydal.objects.Field object>, <pydal.objects.Field object>], **attributes={\'for_update\': False, \'limitby\': (0, 1), \'orderby\': None, \'orderby_on_limitby\': False})'
p187
sg91
S'select'
p188
sa(dp189
g68
S'/Users/itsaireee/Desktop/aifukush/CMPS183/lifeTracker/web2py/gluon/packages/dal/pydal/adapters/sqlite.py'
p190
sg70
(dp191
S'fields'
p192
S'[<pydal.objects.Field object>, <pydal.objects.Field object>, <pydal.objects.Field object>, <pydal.objects.Field object>, <pydal.objects.Field object>, <pydal.objects.Field object>, <pydal.objects.Field object>]'
p193
sS'self'
p194
S'<pydal.adapters.sqlite.SQLite object>'
p195
sS').select'
p196
S'<bound method SQLite.select of <pydal.adapters.sqlite.SQLite object>>'
p197
sS'attributes'
p198
S"{'for_update': False, 'limitby': (0, 1), 'orderby': None, 'orderby_on_limitby': False}"
p199
sS'query'
p200
S'<Query ("web2py_session_lifeTracker"."id" = 2)>'
p201
sS'builtinsuper'
p202
S"<type 'super'>"
p203
sS'global SQLite'
p204
S"<class 'pydal.adapters.sqlite.SQLite'>"
p205
ssg76
I82
sg77
(dp206
I77
S"            self.execute('PRAGMA foreign_keys=ON;')"
p207
sI78
S''
sI79
S'    def select(self, query, fields, attributes):'
p208
sI80
S"        if attributes.get('for_update', False) and 'cache' not in attributes:"
p209
sI81
S"            self.execute('BEGIN IMMEDIATE TRANSACTION;')"
p210
sI82
S'        return super(SQLite, self).select(query, fields, attributes)'
p211
sI83
S''
sI84
S'    def delete(self, table, query):'
p212
sI85
S'        db = self.db'
p213
sI86
S'        deleted = [x[table._id.name] for x in db(query).select(table._id)]'
p214
ssg89
S'(self=<pydal.adapters.sqlite.SQLite object>, query=<Query ("web2py_session_lifeTracker"."id" = 2)>, fields=[<pydal.objects.Field object>, <pydal.objects.Field object>, <pydal.objects.Field object>, <pydal.objects.Field object>, <pydal.objects.Field object>, <pydal.objects.Field object>, <pydal.objects.Field object>], attributes={\'for_update\': False, \'limitby\': (0, 1), \'orderby\': None, \'orderby_on_limitby\': False})'
p215
sg91
g188
sa(dp216
g68
S'/Users/itsaireee/Desktop/aifukush/CMPS183/lifeTracker/web2py/gluon/packages/dal/pydal/adapters/base.py'
p217
sg70
(dp218
S'self._select_aux'
p219
S'<bound method SQLite._select_aux of <pydal.adapters.sqlite.SQLite object>>'
p220
sS'fields'
p221
S'[<pydal.objects.Field object>, <pydal.objects.Field object>, <pydal.objects.Field object>, <pydal.objects.Field object>, <pydal.objects.Field object>, <pydal.objects.Field object>, <pydal.objects.Field object>]'
p222
sS'self'
p223
S'<pydal.adapters.sqlite.SQLite object>'
p224
sS'sql'
p225
S'\'SELECT "web2py_session_lifeTracker"."id", "web2p..._session_lifeTracker"."id" = 2) LIMIT 1 OFFSET 0;\''
p226
sS'attributes'
p227
S"{'for_update': False, 'limitby': (0, 1), 'orderby': None, 'orderby_on_limitby': False}"
p228
sS'colnames'
p229
S"['web2py_session_lifeTracker.id', 'web2py_session_lifeTracker.locked', 'web2py_session_lifeTracker.client_ip', 'web2py_session_lifeTracker.created_datetime', 'web2py_session_lifeTracker.modified_datetime', 'web2py_session_lifeTracker.unique_key', 'web2py_session_lifeTracker.session_data']"
p230
ssg76
I763
sg77
(dp231
I758
S'        colnames, sql = self._select_wcols(query, fields, **attributes)'
p232
sI759
S"        cache = attributes.get('cache', None)"
p233
sI760
S"        if cache and attributes.get('cacheable', False):"
p234
sI761
S'            return self._cached_select('
p235
sI762
S'                cache, sql, fields, attributes, colnames)'
p236
sI763
S'        return self._select_aux(sql, fields, attributes, colnames)'
p237
sI764
S''
sI765
S'    def iterselect(self, query, fields, attributes):'
p238
sI766
S'        colnames, sql = self._select_wcols(query, fields, **attributes)'
p239
sI767
S"        cacheable = attributes.get('cacheable', False)"
p240
ssg89
S'(self=<pydal.adapters.sqlite.SQLite object>, query=<Query ("web2py_session_lifeTracker"."id" = 2)>, fields=[<pydal.objects.Field object>, <pydal.objects.Field object>, <pydal.objects.Field object>, <pydal.objects.Field object>, <pydal.objects.Field object>, <pydal.objects.Field object>, <pydal.objects.Field object>], attributes={\'for_update\': False, \'limitby\': (0, 1), \'orderby\': None, \'orderby_on_limitby\': False})'
p241
sg91
g188
sa(dp242
g68
S'/Users/itsaireee/Desktop/aifukush/CMPS183/lifeTracker/web2py/gluon/packages/dal/pydal/adapters/base.py'
p243
sg70
(dp244
S'self'
p245
S'<pydal.adapters.sqlite.SQLite object>'
p246
sS'rows'
p247
g129
sS'self._select_aux_execute'
p248
S'<bound method SQLite._select_aux_execute of <pydal.adapters.sqlite.SQLite object>>'
p249
sS'sql'
p250
S'\'SELECT "web2py_session_lifeTracker"."id", "web2p..._session_lifeTracker"."id" = 2) LIMIT 1 OFFSET 0;\''
p251
ssg76
I719
sg77
(dp252
I714
S'        return self.cursor.fetchall()'
p253
sI715
S''
sI716
S'    def _select_aux(self, sql, fields, attributes, colnames):'
p254
sI717
S"        cache = attributes.get('cache', None)"
p255
sI718
S'        if not cache:'
p256
sI719
S'            rows = self._select_aux_execute(sql)'
p257
sI720
S'        else:'
p258
sI721
S'            if isinstance(cache, dict):'
p259
sI722
S"                cache_model = cache['model']"
p260
sI723
S"                time_expire = cache['expiration']"
p261
ssg89
S'(self=<pydal.adapters.sqlite.SQLite object>, sql=\'SELECT "web2py_session_lifeTracker"."id", "web2p..._session_lifeTracker"."id" = 2) LIMIT 1 OFFSET 0;\', fields=[<pydal.objects.Field object>, <pydal.objects.Field object>, <pydal.objects.Field object>, <pydal.objects.Field object>, <pydal.objects.Field object>, <pydal.objects.Field object>, <pydal.objects.Field object>], attributes={\'for_update\': False, \'limitby\': (0, 1), \'orderby\': None, \'orderby_on_limitby\': False}, colnames=[\'web2py_session_lifeTracker.id\', \'web2py_session_lifeTracker.locked\', \'web2py_session_lifeTracker.client_ip\', \'web2py_session_lifeTracker.created_datetime\', \'web2py_session_lifeTracker.modified_datetime\', \'web2py_session_lifeTracker.unique_key\', \'web2py_session_lifeTracker.session_data\'])'
p262
sg91
S'_select_aux'
p263
sa(dp264
g68
S'/Users/itsaireee/Desktop/aifukush/CMPS183/lifeTracker/web2py/gluon/packages/dal/pydal/adapters/base.py'
p265
sg70
(dp266
S'self'
p267
S'<pydal.adapters.sqlite.SQLite object>'
p268
sS'self.execute'
p269
S'<bound method SQLite.wrap of <pydal.adapters.sqlite.SQLite object>>'
p270
sS'sql'
p271
S'\'SELECT "web2py_session_lifeTracker"."id", "web2p..._session_lifeTracker"."id" = 2) LIMIT 1 OFFSET 0;\''
p272
ssg76
I713
sg77
(dp273
I708
S''
sI709
S'    def nested_select(self, query, fields, attributes):'
p274
sI710
S'        return Select(self.db, query, fields, attributes)'
p275
sI711
S''
sI712
S'    def _select_aux_execute(self, sql):'
p276
sI713
S'        self.execute(sql)'
p277
sI714
S'        return self.cursor.fetchall()'
p278
sI715
S''
sI716
S'    def _select_aux(self, sql, fields, attributes, colnames):'
p279
sI717
S"        cache = attributes.get('cache', None)"
p280
ssg89
S'(self=<pydal.adapters.sqlite.SQLite object>, sql=\'SELECT "web2py_session_lifeTracker"."id", "web2p..._session_lifeTracker"."id" = 2) LIMIT 1 OFFSET 0;\')'
p281
sg91
S'_select_aux_execute'
p282
sa(dp283
g68
S'/Users/itsaireee/Desktop/aifukush/CMPS183/lifeTracker/web2py/gluon/packages/dal/pydal/adapters/__init__.py'
p284
sg70
(dp285
S'kwargs'
p286
g21
sS'args'
p287
S'(<pydal.adapters.sqlite.SQLite object>, \'SELECT "web2py_session_lifeTracker"."id", "web2p..._session_lifeTracker"."id" = 2) LIMIT 1 OFFSET 0;\')'
p288
sS'f'
S'<function execute>'
p289
ssg76
I67
sg77
(dp290
I64
S'            if len(args) > 1:'
p291
sI65
S'                raise ValueError(args[1])'
p292
sI66
S"            raise RuntimeError('no connection available')"
p293
sI67
S'        return f(*args, **kwargs)'
p294
sI68
S'    return wrap'
p295
sI69
S''
sI70
S''
sI71
S'from .base import SQLAdapter, NoSQLAdapter'
p296
sI62
S'    def wrap(*args, **kwargs):'
p297
sI63
S'        if not args[0].connection:'
p298
ssg89
S'(*args=(<pydal.adapters.sqlite.SQLite object>, \'SELECT "web2py_session_lifeTracker"."id", "web2p..._session_lifeTracker"."id" = 2) LIMIT 1 OFFSET 0;\'), **kwargs={})'
p299
sg91
S'wrap'
p300
sa(dp301
g68
S'/Users/itsaireee/Desktop/aifukush/CMPS183/lifeTracker/web2py/gluon/packages/dal/pydal/adapters/base.py'
p302
sg70
(dp303
S'rv'
p304
g129
sS'self'
p305
S'<pydal.adapters.sqlite.SQLite object>'
p306
sS'args'
p307
S'(\'SELECT "web2py_session_lifeTracker"."id", "web2p..._session_lifeTracker"."id" = 2) LIMIT 1 OFFSET 0;\',)'
p308
sS'self.cursor'
p309
S'<sqlite3.Cursor object>'
p310
sS'command'
p311
S'\'SELECT "web2py_session_lifeTracker"."id", "web2p..._session_lifeTracker"."id" = 2) LIMIT 1 OFFSET 0;\''
p312
sS'self.cursor.execute'
p313
S'<built-in method execute of sqlite3.Cursor object>'
p314
sS'kwargs'
p315
g21
ssg76
I413
sg77
(dp316
I416
S'        return rv'
p317
sI417
S''
sI408
S'    def execute(self, *args, **kwargs):'
p318
sI409
S'        command = self.filter_sql_command(args[0])'
p319
sI410
S'        handlers = self._build_handlers_for_execution()'
p320
sI411
S'        for handler in handlers:'
p321
sI412
S'            handler.before_execute(command)'
p322
sI413
S'        rv = self.cursor.execute(command, *args[1:], **kwargs)'
p323
sI414
S'        for handler in handlers:'
p324
sI415
S'            handler.after_execute(command)'
p325
ssg89
S'(self=<pydal.adapters.sqlite.SQLite object>, *args=(\'SELECT "web2py_session_lifeTracker"."id", "web2p..._session_lifeTracker"."id" = 2) LIMIT 1 OFFSET 0;\',), **kwargs={})'
p326
sg91
S'execute'
p327
sasS'pyver'
p328
S'Python 2.7.15: /anaconda2/bin/python (prefix: /anaconda2)'
p329
sS'session'
p330
g63
(S's\x1a\x00\x00\x00<div><table></table></div>'
tRp331
sS'etype'
p332
S"<class 'sqlite3.OperationalError'>"
p333
sS'date'
p334
S'Wed Nov 28 13:11:26 2018'
p335
sS'response'
p336
g63
(S's\xe2\x17\x00\x00<div><table><tr><td style="font-weight:bold;vertical-align:top;">body</td><td style="vertical-align:top;">:</td><td><div>&lt;cStringIO.StringO object at 0x1103cc880&gt;</div></td></tr><tr><td style="font-weight:bold;vertical-align:top;">cookies</td><td style="vertical-align:top;">:</td><td><div><table><tr><td style="font-weight:bold;vertical-align:top;">session_id_lifetracker</td><td style="vertical-align:top;">:</td><td><div>127.0.0.1-afb5a17e-c15f-474e-97ad-a96e96f615c7<table><tr><td style="font-weight:bold;vertical-align:top;">comment</td><td style="vertical-align:top;">:</td><td><div></div></td></tr><tr><td style="font-weight:bold;vertical-align:top;">domain</td><td style="vertical-align:top;">:</td><td><div></div></td></tr><tr><td style="font-weight:bold;vertical-align:top;">expires</td><td style="vertical-align:top;">:</td><td><div></div></td></tr><tr><td style="font-weight:bold;vertical-align:top;">httponly</td><td style="vertical-align:top;">:</td><td><div></div></td></tr><tr><td style="font-weight:bold;vertical-align:top;">max-age</td><td style="vertical-align:top;">:</td><td><div></div></td></tr><tr><td style="font-weight:bold;vertical-align:top;">path</td><td style="vertical-align:top;">:</td><td><div>/</div></td></tr><tr><td style="font-weight:bold;vertical-align:top;">samesite</td><td style="vertical-align:top;">:</td><td><div></div></td></tr><tr><td style="font-weight:bold;vertical-align:top;">secure</td><td style="vertical-align:top;">:</td><td><div></div></td></tr><tr><td style="font-weight:bold;vertical-align:top;">version</td><td style="vertical-align:top;">:</td><td><div></div></td></tr></table></div></td></tr></table></div></td></tr><tr><td style="font-weight:bold;vertical-align:top;">delimiters</td><td style="vertical-align:top;">:</td><td><div><table><tr><td><div>{{</div></td></tr><tr><td><div>}}</div></td></tr></table></div></td></tr><tr><td style="font-weight:bold;vertical-align:top;">files</td><td style="vertical-align:top;">:</td><td><div><table></table></div></td></tr><tr><td style="font-weight:bold;vertical-align:top;">flash</td><td style="vertical-align:top;">:</td><td><div></div></td></tr><tr><td style="font-weight:bold;vertical-align:top;">form_label_separator</td><td style="vertical-align:top;">:</td><td><div>: </div></td></tr><tr><td style="font-weight:bold;vertical-align:top;">formstyle</td><td style="vertical-align:top;">:</td><td><div>table3cols</div></td></tr><tr><td style="font-weight:bold;vertical-align:top;">generic_patterns</td><td style="vertical-align:top;">:</td><td><div><table><tr><td><div>*</div></td></tr></table></div></td></tr><tr><td style="font-weight:bold;vertical-align:top;">headers</td><td style="vertical-align:top;">:</td><td><div><table><tr><td style="font-weight:bold;vertical-align:top;">X-Powered-By</td><td style="vertical-align:top;">:</td><td><div>web2py</div></td></tr></table></div></td></tr><tr><td style="font-weight:bold;vertical-align:top;">menu</td><td style="vertical-align:top;">:</td><td><div><table></table></div></td></tr><tr><td style="font-weight:bold;vertical-align:top;">meta</td><td style="vertical-align:top;">:</td><td><div><table></table></div></td></tr><tr><td style="font-weight:bold;vertical-align:top;">models_to_run</td><td style="vertical-align:top;">:</td><td><div><table><tr><td><div>^\\w+\\.py$</div></td></tr><tr><td><div>^default/\\w+\\.py$</div></td></tr><tr><td><div>^default/index/\\w+\\.py$</div></td></tr></table></div></td></tr><tr><td style="font-weight:bold;vertical-align:top;">postprocessing</td><td style="vertical-align:top;">:</td><td><div><table></table></div></td></tr><tr><td style="font-weight:bold;vertical-align:top;">session_client</td><td style="vertical-align:top;">:</td><td><div>127.0.0.1</div></td></tr><tr><td style="font-weight:bold;vertical-align:top;">session_cookie_compression_level</td><td style="vertical-align:top;">:</td><td><div>None</div></td></tr><tr><td style="font-weight:bold;vertical-align:top;">session_cookie_expires</td><td style="vertical-align:top;">:</td><td><div>None</div></td></tr><tr><td style="font-weight:bold;vertical-align:top;">session_data_name</td><td style="vertical-align:top;">:</td><td><div>session_data_lifetracker</div></td></tr><tr><td style="font-weight:bold;vertical-align:top;">session_db_table</td><td style="vertical-align:top;">:</td><td><div>&lt;Table web2py_session_lifeTracker (id, locked, client_ip, created_datetime, modified_datetime, unique_key, session_data)&gt;</div></td></tr><tr><td style="font-weight:bold;vertical-align:top;">session_file</td><td style="vertical-align:top;">:</td><td><div>None</div></td></tr><tr><td style="font-weight:bold;vertical-align:top;">session_filename</td><td style="vertical-align:top;">:</td><td><div>/Users/itsaireee/Desktop/aifukush/CMPS183/lifeTracker/web2py/applications/lifeTracker/sessions/127.0.0.1-afb5a17e-c15f-474e-97ad-a96e96f615c7</div></td></tr><tr><td style="font-weight:bold;vertical-align:top;">session_hash</td><td style="vertical-align:top;">:</td><td><div>c0762cbf4baf7f9af97c051e7fcb8083</div></td></tr><tr><td style="font-weight:bold;vertical-align:top;">session_id</td><td style="vertical-align:top;">:</td><td><div>2:e5a0db50-3fc5-4c0f-9c93-1ec80d075e87</div></td></tr><tr><td style="font-weight:bold;vertical-align:top;">session_id_name</td><td style="vertical-align:top;">:</td><td><div>session_id_lifetracker</div></td></tr><tr><td style="font-weight:bold;vertical-align:top;">session_masterapp</td><td style="vertical-align:top;">:</td><td><div>lifeTracker</div></td></tr><tr><td style="font-weight:bold;vertical-align:top;">session_new</td><td style="vertical-align:top;">:</td><td><div>True</div></td></tr><tr><td style="font-weight:bold;vertical-align:top;">session_storage_type</td><td style="vertical-align:top;">:</td><td><div>db</div></td></tr><tr><td style="font-weight:bold;vertical-align:top;">status</td><td style="vertical-align:top;">:</td><td><div>200</div></td></tr><tr><td style="font-weight:bold;vertical-align:top;">view</td><td style="vertical-align:top;">:</td><td><div>default/index.html</div></td></tr></table></div>'
tRp337
sS'locals'
p338
(dp339
S'handlers'
p340
S'[<pydal.helpers.classes.TimingHandler object>]'
p341
sS'self'
p342
S'<pydal.adapters.sqlite.SQLite object>'
p343
sg48
S'(\'SELECT "web2py_session_lifeTracker"."id", "web2p..._session_lifeTracker"."id" = 2) LIMIT 1 OFFSET 0;\',)'
p344
sS'handler'
p345
S'<pydal.helpers.classes.TimingHandler object>'
p346
sS'command'
p347
S'\'SELECT "web2py_session_lifeTracker"."id", "web2p..._session_lifeTracker"."id" = 2) LIMIT 1 OFFSET 0;\''
p348
sS'kwargs'
p349
g21
sssS'traceback'
p350
S'Traceback (most recent call last):\n  File "/Users/itsaireee/Desktop/aifukush/CMPS183/lifeTracker/web2py/gluon/restricted.py", line 219, in restricted\n    exec(ccode, environment)\n  File "/Users/itsaireee/Desktop/aifukush/CMPS183/lifeTracker/web2py/applications/lifeTracker/models/db.py", line 26, in <module>\n    session.connect(request, response, db=db)\n  File "/Users/itsaireee/Desktop/aifukush/CMPS183/lifeTracker/web2py/gluon/globals.py", line 967, in connect\n    row = table(record_id, unique_key=unique_key)\n  File "/Users/itsaireee/Desktop/aifukush/CMPS183/lifeTracker/web2py/gluon/packages/dal/pydal/objects.py", line 584, in __call__\n    orderby_on_limitby=False).first()\n  File "/Users/itsaireee/Desktop/aifukush/CMPS183/lifeTracker/web2py/gluon/packages/dal/pydal/objects.py", line 2275, in select\n    return adapter.select(self.query, fields, attributes)\n  File "/Users/itsaireee/Desktop/aifukush/CMPS183/lifeTracker/web2py/gluon/packages/dal/pydal/adapters/sqlite.py", line 82, in select\n    return super(SQLite, self).select(query, fields, attributes)\n  File "/Users/itsaireee/Desktop/aifukush/CMPS183/lifeTracker/web2py/gluon/packages/dal/pydal/adapters/base.py", line 763, in select\n    return self._select_aux(sql, fields, attributes, colnames)\n  File "/Users/itsaireee/Desktop/aifukush/CMPS183/lifeTracker/web2py/gluon/packages/dal/pydal/adapters/base.py", line 719, in _select_aux\n    rows = self._select_aux_execute(sql)\n  File "/Users/itsaireee/Desktop/aifukush/CMPS183/lifeTracker/web2py/gluon/packages/dal/pydal/adapters/base.py", line 713, in _select_aux_execute\n    self.execute(sql)\n  File "/Users/itsaireee/Desktop/aifukush/CMPS183/lifeTracker/web2py/gluon/packages/dal/pydal/adapters/__init__.py", line 67, in wrap\n    return f(*args, **kwargs)\n  File "/Users/itsaireee/Desktop/aifukush/CMPS183/lifeTracker/web2py/gluon/packages/dal/pydal/adapters/base.py", line 413, in execute\n    rv = self.cursor.execute(command, *args[1:], **kwargs)\nOperationalError: no such table: web2py_session_lifeTracker\n'
p351
s.